Certificate:
    Data:
        Version: 3 (0x2)
        Serial Number: 4096 (0x1000)
    Signature Algorithm: sha256WithRSAEncryption
        Issuer: C=CN, ST=Hubei, L=Wuhan, O=HUST, OU=HUST, CN=YigeLIU/emailAddress=u201814851@mail.hust.edu.cn
        Validity
            Not Before: May 19 23:47:03 2021 GMT
            Not After : May 19 23:47:03 2022 GMT
        Subject: C=CN, ST=Hubei, O=HUST, OU=HUST, CN=lyg.com/emailAddress=u201814851@mail.hust.edu.cn
        Subject Public Key Info:
            Public Key Algorithm: rsaEncryption
                Public-Key: (1024 bit)
                Modulus:
                    00:c2:a6:81:f3:38:99:bf:b7:17:8e:1f:c3:fb:11:
                    2f:42:c0:81:61:58:2c:39:75:f8:3d:48:9c:d1:8b:
                    ea:75:09:55:c4:34:e9:1a:b8:93:0c:13:87:f4:58:
                    91:3e:d3:98:59:01:39:67:6f:87:55:a6:7b:d8:a3:
                    49:64:07:31:9d:09:fd:bb:35:dc:1c:b6:9f:01:44:
                    8a:a0:cd:bc:89:e8:b3:e8:f6:c8:f6:c4:08:fe:a5:
                    d8:27:da:c0:05:e0:22:44:01:37:6b:29:53:fc:90:
                    7e:ae:44:42:4d:24:1b:fe:17:54:73:ab:d7:e3:8f:
                    4a:5f:b1:34:b0:97:f8:8e:e7
                Exponent: 65537 (0x10001)
        X509v3 extensions:
            X509v3 Basic Constraints: 
                CA:FALSE
            Netscape Comment: 
                OpenSSL Generated Certificate
            X509v3 Subject Key Identifier: 
                EB:42:30:B4:18:5B:3E:31:E9:4C:C3:F2:DA:B8:27:F0:E8:36:03:58
            X509v3 Authority Key Identifier: 
                keyid:7E:58:9B:D4:35:06:27:CA:68:97:13:93:D6:31:99:CB:9B:62:37:A1

    Signature Algorithm: sha256WithRSAEncryption
         0e:e5:36:7b:c1:cb:f1:37:0c:d7:1d:f7:71:09:04:5c:34:5b:
         04:02:f5:20:54:d3:49:d6:e3:ae:af:a1:b4:60:f0:af:9f:c5:
         66:56:db:30:7a:f3:91:32:85:5e:d0:06:f3:ee:42:72:b9:06:
         b0:fe:05:aa:88:79:00:29:ab:2e:d8:d0:cb:ba:b7:a6:6a:4f:
         18:86:40:bf:6b:01:fc:4b:30:cd:6f:71:d2:ba:c8:e9:71:96:
         d4:9a:2b:58:75:23:ed:e2:12:e8:85:1b:64:4a:be:3d:63:ae:
         95:82:06:8a:66:9f:ba:56:8f:77:4b:e0:16:37:6e:9c:45:93:
         ef:94:ec:93:7f:d6:6e:68:71:73:a4:68:97:15:0f:9c:25:4b:
         a5:81:9e:7a:e7:3a:1a:84:f7:89:ed:fd:08:9d:35:a0:a0:07:
         1a:6b:d2:2a:fe:9d:8b:a1:9d:d9:49:ff:5f:51:0a:69:05:f2:
         e0:c7:5a:ba:41:be:cc:54:24:ce:2a:93:5b:99:a3:af:c5:b9:
         18:0d:0a:fd:06:9f:f6:19:9a:5b:2e:c7:6e:27:82:08:3d:87:
         a8:2e:7f:3f:24:17:46:17:26:bd:0f:80:42:66:de:95:fb:22:
         7a:92:45:21:a7:c2:7f:6f:72:e2:a2:a6:ad:ea:f8:c0:c9:19:
         89:e3:07:fc
-----BEGIN CERTIFICATE-----
MIIDdjCCAl6gAwIBAgICEAAwDQYJKoZIhvcNAQELBQAwgYkxCzAJBgNVBAYTAkNO
MQ4wDAYDVQQIDAVIdWJlaTEOMAwGA1UEBwwFV3VoYW4xDTALBgNVBAoMBEhVU1Qx
DTALBgNVBAsMBEhVU1QxEDAOBgNVBAMMB1lpZ2VMSVUxKjAoBgkqhkiG9w0BCQEW
G3UyMDE4MTQ4NTFAbWFpbC5odXN0LmVkdS5jbjAeFw0yMTA1MTkyMzQ3MDNaFw0y
MjA1MTkyMzQ3MDNaMHkxCzAJBgNVBAYTAkNOMQ4wDAYDVQQIDAVIdWJlaTENMAsG
A1UECgwESFVTVDENMAsGA1UECwwESFVTVDEQMA4GA1UEAwwHbHlnLmNvbTEqMCgG
CSqGSIb3DQEJARYbdTIwMTgxNDg1MUBtYWlsLmh1c3QuZWR1LmNuMIGfMA0GCSqG
SIb3DQEBAQUAA4GNADCBiQKBgQDCpoHzOJm/txeOH8P7ES9CwIFhWCw5dfg9SJzR
i+p1CVXENOkauJMME4f0WJE+05hZATlnb4dVpnvYo0lkBzGdCf27Ndwctp8BRIqg
zbyJ6LPo9sj2xAj+pdgn2sAF4CJEATdrKVP8kH6uREJNJBv+F1Rzq9fjj0pfsTSw
l/iO5wIDAQABo3sweTAJBgNVHRMEAjAAMCwGCWCGSAGG+EIBDQQfFh1PcGVuU1NM
IEdlbmVyYXRlZCBDZXJ0aWZpY2F0ZTAdBgNVHQ4EFgQU60IwtBhbPjHpTMPy2rgn
8Og2A1gwHwYDVR0jBBgwFoAUflib1DUGJ8polxOT1jGZy5tiN6EwDQYJKoZIhvcN
AQELBQADggEBAA7lNnvBy/E3DNcd93EJBFw0WwQC9SBU00nW466vobRg8K+fxWZW
2zB685EyhV7QBvPuQnK5BrD+BaqIeQApqy7Y0Mu6t6ZqTxiGQL9rAfxLMM1vcdK6
yOlxltSaK1h1I+3iEuiFG2RKvj1jrpWCBopmn7pWj3dL4BY3bpxFk++U7JN/1m5o
cXOkaJcVD5wlS6WBnnrnOhqE94nt/QidNaCgBxpr0ir+nYuhndlJ/19RCmkF8uDH
WrpBvsxUJM4qk1uZo6/FuRgNCv0Gn/YZmlsux24nggg9h6gufz8kF0YXJr0PgEJm
3pX7InqSRSGnwn9vcuKipq3q+MDJGYnjB/w=
-----END CERTIFICATE-----
