Certificate:
    Data:
        Version: 3 (0x2)
        Serial Number: 4096 (0x1000)
    Signature Algorithm: sha256WithRSAEncryption
        Issuer: C=CN, ST=Hubei, L=Wuhan, O=HUST, OU=HUST, CN=ZichuanXU/emailAddress=U201916322@hust.edu.cn
        Validity
            Not Before: May 15 19:47:24 2022 GMT
            Not After : May 15 19:47:24 2023 GMT
        Subject: C=CN, ST=Hubei, O=HUST, OU=HUST, CN=ZichuanXU/emailAddress=U201916322@hust.edu.cn
        Subject Public Key Info:
            Public Key Algorithm: rsaEncryption
                Public-Key: (1024 bit)
                Modulus:
                    00:af:b2:a2:2a:e1:90:e7:33:3d:80:cb:aa:b3:fc:
                    c1:fd:46:3d:f6:38:d3:7c:85:bb:f3:7c:f1:db:30:
                    44:8b:98:4c:18:42:37:22:36:e3:a9:ea:81:7f:a5:
                    e0:e7:04:79:b2:42:9d:ba:1f:31:27:e8:99:4e:2d:
                    b4:c5:68:41:44:61:b6:34:5a:33:67:94:87:62:de:
                    09:41:c6:b6:eb:58:74:75:bc:1c:04:ad:c4:d4:16:
                    6c:c4:dd:8c:9f:b9:69:34:cc:47:84:85:8b:0f:14:
                    4f:95:69:bd:56:f3:3d:1f:02:b5:d6:06:42:fd:72:
                    0f:d7:aa:21:77:74:fa:7c:f7
                Exponent: 65537 (0x10001)
        X509v3 extensions:
            X509v3 Basic Constraints: 
                CA:FALSE
            Netscape Comment: 
                OpenSSL Generated Certificate
            X509v3 Subject Key Identifier: 
                B0:EA:25:D6:73:9B:C1:45:09:61:01:D0:61:DE:54:37:E7:6C:94:F6
            X509v3 Authority Key Identifier: 
                keyid:80:30:9D:29:7E:6A:2E:22:1B:1A:BB:3F:5D:9A:B2:7E:89:43:43:F1

    Signature Algorithm: sha256WithRSAEncryption
         60:d1:2e:df:7b:7a:ea:e8:bc:ba:12:aa:38:b6:b8:b1:72:f2:
         c2:63:2b:6b:db:94:bf:a2:92:5f:84:fd:70:a8:f3:28:0d:54:
         c0:e2:4f:95:65:e0:21:f6:8b:80:5e:5c:d7:ae:36:54:f8:08:
         fc:4f:1b:d7:42:48:1b:90:e0:30:93:8b:78:03:8d:a1:d3:ff:
         04:a4:4f:c0:15:92:67:15:ba:08:2c:7a:66:66:0b:36:0e:bc:
         fe:8f:5f:bd:d4:3c:54:70:9e:82:0a:11:74:af:c2:e3:e0:da:
         22:f3:64:de:5a:43:86:b9:84:1f:b8:f6:08:56:55:4d:ac:61:
         9c:ce:b0:7d:fa:b7:9a:8b:bc:fb:52:65:83:36:90:17:7b:25:
         01:5b:48:a7:20:51:d5:c0:77:eb:9a:1d:de:49:2b:71:98:3c:
         9b:26:e6:13:4e:28:ca:2d:2f:65:1f:80:da:f7:98:96:ca:e9:
         f0:46:a2:50:f2:6a:77:08:c5:27:d4:fd:9e:64:ab:81:23:22:
         dc:b1:01:30:8e:6e:2a:c0:1a:30:3f:88:13:fc:d6:46:03:77:
         4f:8e:19:7c:b5:0b:39:48:3d:7c:9f:97:12:f9:59:27:b8:04:
         48:c5:59:ff:0a:65:f5:ce:fa:bc:56:c1:a9:f1:11:ab:fe:22:
         99:dc:91:57
-----BEGIN CERTIFICATE-----
MIIDcDCCAligAwIBAgICEAAwDQYJKoZIhvcNAQELBQAwgYYxCzAJBgNVBAYTAkNO
MQ4wDAYDVQQIDAVIdWJlaTEOMAwGA1UEBwwFV3VoYW4xDTALBgNVBAoMBEhVU1Qx
DTALBgNVBAsMBEhVU1QxEjAQBgNVBAMMCVppY2h1YW5YVTElMCMGCSqGSIb3DQEJ
ARYWVTIwMTkxNjMyMkBodXN0LmVkdS5jbjAeFw0yMjA1MTUxOTQ3MjRaFw0yMzA1
MTUxOTQ3MjRaMHYxCzAJBgNVBAYTAkNOMQ4wDAYDVQQIDAVIdWJlaTENMAsGA1UE
CgwESFVTVDENMAsGA1UECwwESFVTVDESMBAGA1UEAwwJWmljaHVhblhVMSUwIwYJ
KoZIhvcNAQkBFhZVMjAxOTE2MzIyQGh1c3QuZWR1LmNuMIGfMA0GCSqGSIb3DQEB
AQUAA4GNADCBiQKBgQCvsqIq4ZDnMz2Ay6qz/MH9Rj32ONN8hbvzfPHbMESLmEwY
QjciNuOp6oF/peDnBHmyQp26HzEn6JlOLbTFaEFEYbY0WjNnlIdi3glBxrbrWHR1
vBwErcTUFmzE3YyfuWk0zEeEhYsPFE+Vab1W8z0fArXWBkL9cg/XqiF3dPp89wID
AQABo3sweTAJBgNVHRMEAjAAMCwGCWCGSAGG+EIBDQQfFh1PcGVuU1NMIEdlbmVy
YXRlZCBDZXJ0aWZpY2F0ZTAdBgNVHQ4EFgQUsOol1nObwUUJYQHQYd5UN+dslPYw
HwYDVR0jBBgwFoAUgDCdKX5qLiIbGrs/XZqyfolDQ/EwDQYJKoZIhvcNAQELBQAD
ggEBAGDRLt97eurovLoSqji2uLFy8sJjK2vblL+ikl+E/XCo8ygNVMDiT5Vl4CH2
i4BeXNeuNlT4CPxPG9dCSBuQ4DCTi3gDjaHT/wSkT8AVkmcVuggsemZmCzYOvP6P
X73UPFRwnoIKEXSvwuPg2iLzZN5aQ4a5hB+49ghWVU2sYZzOsH36t5qLvPtSZYM2
kBd7JQFbSKcgUdXAd+uaHd5JK3GYPJsm5hNOKMotL2UfgNr3mJbK6fBGolDyancI
xSfU/Z5kq4EjItyxATCObirAGjA/iBP81kYDd0+OGXy1CzlIPXyflxL5WSe4BEjF
Wf8KZfXO+rxWwanxEav+IpnckVc=
-----END CERTIFICATE-----
